; ModuleID = '10/1655.c'
source_filename = "10/1655.c"
target datalayout = "e-m:e-p270:32:32-p271:32:32-p272:64:64-i64:64-f80:128-n8:16:32:64-S128"
target triple = "x86_64-pc-linux-gnu"

@k = common dso_local global i32 0, align 4
@a = common dso_local global [100 x i32] zeroinitializer, align 16
@.str = private unnamed_addr constant [3 x i8] c"%d\00", align 1

; Function Attrs: noinline nounwind uwtable
define dso_local i32 @find(i32 %0) #0 {
  %2 = alloca i32, align 4
  %3 = alloca i32, align 4
  %4 = alloca i32, align 4
  %5 = alloca i32, align 4
  %6 = alloca i32, align 4
  store i32 %0, i32* %3, align 4
  store i32 0, i32* %5, align 4
  %7 = load i32, i32* %3, align 4
  %8 = load i32, i32* @k, align 4
  %9 = sub nsw i32 %8, 1
  %10 = icmp eq i32 %7, %9
  br i1 %10, label %11, label %12

11:                                               ; preds = %1
  store i32 1, i32* %2, align 4
  br label %46

12:                                               ; preds = %1
  %13 = load i32, i32* %3, align 4
  %14 = add nsw i32 %13, 1
  store i32 %14, i32* %4, align 4
  br label %15

15:                                               ; preds = %40, %12
  %16 = load i32, i32* %4, align 4
  %17 = load i32, i32* @k, align 4
  %18 = sub nsw i32 %17, 1
  %19 = icmp sle i32 %16, %18
  br i1 %19, label %20, label %43

20:                                               ; preds = %15
  %21 = load i32, i32* %3, align 4
  %22 = sext i32 %21 to i64
  %23 = getelementptr inbounds [100 x i32], [100 x i32]* @a, i64 0, i64 %22
  %24 = load i32, i32* %23, align 4
  %25 = load i32, i32* %4, align 4
  %26 = sext i32 %25 to i64
  %27 = getelementptr inbounds [100 x i32], [100 x i32]* @a, i64 0, i64 %26
  %28 = load i32, i32* %27, align 4
  %29 = icmp sge i32 %24, %28
  br i1 %29, label %30, label %39

30:                                               ; preds = %20
  %31 = load i32, i32* %4, align 4
  %32 = call i32 @find(i32 %31)
  store i32 %32, i32* %6, align 4
  %33 = load i32, i32* %5, align 4
  %34 = load i32, i32* %6, align 4
  %35 = icmp slt i32 %33, %34
  br i1 %35, label %36, label %38

36:                                               ; preds = %30
  %37 = load i32, i32* %6, align 4
  store i32 %37, i32* %5, align 4
  br label %38

38:                                               ; preds = %36, %30
  br label %39

39:                                               ; preds = %38, %20
  br label %40

40:                                               ; preds = %39
  %41 = load i32, i32* %4, align 4
  %42 = add nsw i32 %41, 1
  store i32 %42, i32* %4, align 4
  br label %15

43:                                               ; preds = %15
  %44 = load i32, i32* %5, align 4
  %45 = add nsw i32 %44, 1
  store i32 %45, i32* %2, align 4
  br label %46

46:                                               ; preds = %43, %11
  %47 = load i32, i32* %2, align 4
  ret i32 %47
}

; Function Attrs: noinline nounwind uwtable
define dso_local i32 @main() #0 {
  %1 = alloca i32, align 4
  %2 = alloca i32, align 4
  %3 = alloca i32, align 4
  %4 = alloca i32, align 4
  %5 = alloca i32, align 4
  %6 = alloca i32, align 4
  store i32 0, i32* %1, align 4
  store i32 0, i32* %4, align 4
  store i32 0, i32* %6, align 4
  %7 = call i32 (i8*, ...) @__isoc99_scanf(i8* getelementptr inbounds ([3 x i8], [3 x i8]* @.str, i64 0, i64 0), i32* @k)
  store i32 0, i32* %2, align 4
  br label %8

8:                                                ; preds = %18, %0
  %9 = load i32, i32* %2, align 4
  %10 = load i32, i32* @k, align 4
  %11 = sub nsw i32 %10, 1
  %12 = icmp sle i32 %9, %11
  br i1 %12, label %13, label %21

13:                                               ; preds = %8
  %14 = load i32, i32* %2, align 4
  %15 = sext i32 %14 to i64
  %16 = getelementptr inbounds [100 x i32], [100 x i32]* @a, i64 0, i64 %15
  %17 = call i32 (i8*, ...) @__isoc99_scanf(i8* getelementptr inbounds ([3 x i8], [3 x i8]* @.str, i64 0, i64 0), i32* %16)
  br label %18

18:                                               ; preds = %13
  %19 = load i32, i32* %2, align 4
  %20 = add nsw i32 %19, 1
  store i32 %20, i32* %2, align 4
  br label %8

21:                                               ; preds = %8
  store i32 0, i32* %2, align 4
  br label %22

22:                                               ; preds = %36, %21
  %23 = load i32, i32* %2, align 4
  %24 = load i32, i32* @k, align 4
  %25 = sub nsw i32 %24, 1
  %26 = icmp sle i32 %23, %25
  br i1 %26, label %27, label %39

27:                                               ; preds = %22
  %28 = load i32, i32* %2, align 4
  %29 = call i32 @find(i32 %28)
  store i32 %29, i32* %5, align 4
  %30 = load i32, i32* %6, align 4
  %31 = load i32, i32* %5, align 4
  %32 = icmp slt i32 %30, %31
  br i1 %32, label %33, label %35

33:                                               ; preds = %27
  %34 = load i32, i32* %5, align 4
  store i32 %34, i32* %6, align 4
  br label %35

35:                                               ; preds = %33, %27
  br label %36

36:                                               ; preds = %35
  %37 = load i32, i32* %2, align 4
  %38 = add nsw i32 %37, 1
  store i32 %38, i32* %2, align 4
  br label %22

39:                                               ; preds = %22
  %40 = load i32, i32* %6, align 4
  %41 = call i32 (i8*, ...) @printf(i8* getelementptr inbounds ([3 x i8], [3 x i8]* @.str, i64 0, i64 0), i32 %40)
  %42 = load i32, i32* %1, align 4
  ret i32 %42
}

declare dso_local i32 @__isoc99_scanf(i8*, ...) #1

declare dso_local i32 @printf(i8*, ...) #1


!llvm.module.flags = !{!0}
!llvm.ident = !{!1}

!0 = !{i32 1, !"wchar_size", i32 4}
!1 = !{!"clang version 10.0.0-4ubuntu1 "}
