; ModuleID = 'source-C-CXX/9/1655.c'
source_filename = "source-C-CXX/9/1655.c"
target datalayout = "e-m:e-p270:32:32-p271:32:32-p272:64:64-i64:64-f80:128-n8:16:32:64-S128"
target triple = "x86_64-pc-linux-gnu"

@k = dso_local global i32 0, align 4
@a = dso_local global [100 x i32] zeroinitializer, align 16
@.str = private unnamed_addr constant [3 x i8] c"%d\00", align 1

; Function Attrs: nofree nosync nounwind readonly sspstrong uwtable
define dso_local i32 @find(i32 %0) local_unnamed_addr #0 {
  %2 = load i32, i32* @k, align 4, !tbaa !5
  %3 = add i32 %2, -1
  %4 = icmp eq i32 %3, %0
  br i1 %4, label %30, label %5

5:                                                ; preds = %1
  %6 = icmp sgt i32 %3, %0
  br i1 %6, label %7, label %27

7:                                                ; preds = %5
  %8 = sext i32 %0 to i64
  %9 = getelementptr inbounds [100 x i32], [100 x i32]* @a, i64 0, i64 %8
  %10 = load i32, i32* %9, align 4, !tbaa !5
  %11 = sext i32 %3 to i64
  br label %12

12:                                               ; preds = %7, %24
  %13 = phi i64 [ %8, %7 ], [ %15, %24 ]
  %14 = phi i32 [ 0, %7 ], [ %25, %24 ]
  %15 = add nsw i64 %13, 1
  %16 = getelementptr inbounds [100 x i32], [100 x i32]* @a, i64 0, i64 %15
  %17 = load i32, i32* %16, align 4, !tbaa !5
  %18 = icmp slt i32 %10, %17
  br i1 %18, label %24, label %19

19:                                               ; preds = %12
  %20 = trunc i64 %15 to i32
  %21 = tail call i32 @find(i32 %20)
  %22 = icmp slt i32 %14, %21
  %23 = select i1 %22, i32 %21, i32 %14
  br label %24

24:                                               ; preds = %19, %12
  %25 = phi i32 [ %14, %12 ], [ %23, %19 ]
  %26 = icmp eq i64 %15, %11
  br i1 %26, label %27, label %12, !llvm.loop !9

27:                                               ; preds = %24, %5
  %28 = phi i32 [ 0, %5 ], [ %25, %24 ]
  %29 = add nsw i32 %28, 1
  br label %30

30:                                               ; preds = %1, %27
  %31 = phi i32 [ %29, %27 ], [ 1, %1 ]
  ret i32 %31
}

; Function Attrs: nofree nounwind sspstrong uwtable
define dso_local i32 @main() local_unnamed_addr #1 {
  %1 = tail call i32 (i8*, ...) @__isoc99_scanf(i8* getelementptr inbounds ([3 x i8], [3 x i8]* @.str, i64 0, i64 0), i32* nonnull @k)
  %2 = load i32, i32* @k, align 4, !tbaa !5
  %3 = icmp sgt i32 %2, 0
  br i1 %3, label %6, label %22

4:                                                ; preds = %6
  %5 = icmp sgt i32 %11, 0
  br i1 %5, label %14, label %22

6:                                                ; preds = %0, %6
  %7 = phi i64 [ %10, %6 ], [ 0, %0 ]
  %8 = getelementptr inbounds [100 x i32], [100 x i32]* @a, i64 0, i64 %7
  %9 = tail call i32 (i8*, ...) @__isoc99_scanf(i8* getelementptr inbounds ([3 x i8], [3 x i8]* @.str, i64 0, i64 0), i32* nonnull %8)
  %10 = add nuw nsw i64 %7, 1
  %11 = load i32, i32* @k, align 4, !tbaa !5
  %12 = sext i32 %11 to i64
  %13 = icmp slt i64 %10, %12
  br i1 %13, label %6, label %4, !llvm.loop !11

14:                                               ; preds = %4, %14
  %15 = phi i32 [ %19, %14 ], [ 0, %4 ]
  %16 = phi i32 [ %20, %14 ], [ 0, %4 ]
  %17 = tail call i32 @find(i32 %16)
  %18 = icmp slt i32 %15, %17
  %19 = select i1 %18, i32 %17, i32 %15
  %20 = add nuw nsw i32 %16, 1
  %21 = icmp eq i32 %20, %11
  br i1 %21, label %22, label %14, !llvm.loop !12

22:                                               ; preds = %14, %0, %4
  %23 = phi i32 [ 0, %4 ], [ 0, %0 ], [ %19, %14 ]
  %24 = tail call i32 (i8*, ...) @printf(i8* nonnull dereferenceable(1) getelementptr inbounds ([3 x i8], [3 x i8]* @.str, i64 0, i64 0), i32 %23)
  ret i32 0
}

; Function Attrs: nofree nounwind
declare noundef i32 @__isoc99_scanf(i8* nocapture noundef readonly, ...) local_unnamed_addr #2

; Function Attrs: nofree nounwind
declare noundef i32 @printf(i8* nocapture noundef readonly, ...) local_unnamed_addr #2


!llvm.module.flags = !{!0, !1, !2, !3}
!llvm.ident = !{!4}

!0 = !{i32 1, !"wchar_size", i32 4}
!1 = !{i32 7, !"PIC Level", i32 2}
!2 = !{i32 7, !"PIE Level", i32 2}
!3 = !{i32 7, !"uwtable", i32 1}
!4 = !{!"clang version 13.0.0"}
!5 = !{!6, !6, i64 0}
!6 = !{!"int", !7, i64 0}
!7 = !{!"omnipotent char", !8, i64 0}
!8 = !{!"Simple C/C++ TBAA"}
!9 = distinct !{!9, !10}
!10 = !{!"llvm.loop.mustprogress"}
!11 = distinct !{!11, !10}
!12 = distinct !{!12, !10}
